target datalayout = "e-m:e-p270:32:32-p271:32:32-p272:64:64-i64:64-i128:128-f80:128-n8:16:32:64-S128"
target triple = "x86_64-pc-linux-gnu"

%"class.llvm::IntrusiveRefCntPtr" = type { ptr }
%"class.clang::ento::SVal" = type <{ ptr, i8, [7 x i8] }>
%"class.clang::ento::EnvironmentEntry" = type { %"struct.std::pair.149" }
%"struct.std::pair.149" = type { ptr, ptr }
%"class.clang::ento::ProgramState" = type { %"class.llvm::FoldingSetBase::Node", ptr, %"class.clang::ento::Environment", ptr, %"class.llvm::ImmutableMap.3", i8, i32 }
%"class.llvm::FoldingSetBase::Node" = type { ptr }
%"class.clang::ento::Environment" = type { %"class.llvm::ImmutableMap.1" }
%"class.llvm::ImmutableMap.1" = type { %"class.llvm::IntrusiveRefCntPtr.2" }
%"class.llvm::IntrusiveRefCntPtr.2" = type { ptr }
%"class.llvm::ImmutableMap.3" = type { %"class.llvm::IntrusiveRefCntPtr.4" }
%"class.llvm::IntrusiveRefCntPtr.4" = type { ptr }
%"class.clang::ento::ProgramStateManager" = type { ptr, %"class.clang::ento::EnvironmentManager", %"class.std::unique_ptr", %"class.std::unique_ptr.21", %"class.llvm::ImmutableMap<void *, void *>::Factory", %"class.llvm::DenseMap.38", %"class.llvm::FoldingSet", %"class.std::unique_ptr.41", %"class.std::unique_ptr.49", ptr, %"class.std::vector.57" }
%"class.clang::ento::EnvironmentManager" = type { %"class.llvm::ImmutableMap<clang::ento::EnvironmentEntry, clang::ento::SVal>::Factory" }
%"class.llvm::ImmutableMap<clang::ento::EnvironmentEntry, clang::ento::SVal>::Factory" = type <{ %"class.llvm::ImutAVLFactory", i8, [7 x i8] }>
%"class.llvm::ImutAVLFactory" = type { %"class.llvm::DenseMap", i64, %"class.std::vector", %"class.std::vector" }
%"class.llvm::DenseMap" = type <{ ptr, i32, i32, i32, [4 x i8] }>
%"class.std::vector" = type { %"struct.std::_Vector_base" }
%"struct.std::_Vector_base" = type { %"struct.std::_Vector_base<llvm::ImutAVLTree<llvm::ImutKeyValueInfo<clang::ento::EnvironmentEntry, clang::ento::SVal>> *, std::allocator<llvm::ImutAVLTree<llvm::ImutKeyValueInfo<clang::ento::EnvironmentEntry, clang::ento::SVal>> *>>::_Vector_impl" }
%"struct.std::_Vector_base<llvm::ImutAVLTree<llvm::ImutKeyValueInfo<clang::ento::EnvironmentEntry, clang::ento::SVal>> *, std::allocator<llvm::ImutAVLTree<llvm::ImutKeyValueInfo<clang::ento::EnvironmentEntry, clang::ento::SVal>> *>>::_Vector_impl" = type { %"struct.std::_Vector_base<llvm::ImutAVLTree<llvm::ImutKeyValueInfo<clang::ento::EnvironmentEntry, clang::ento::SVal>> *, std::allocator<llvm::ImutAVLTree<llvm::ImutKeyValueInfo<clang::ento::EnvironmentEntry, clang::ento::SVal>> *>>::_Vector_impl_data" }
%"struct.std::_Vector_base<llvm::ImutAVLTree<llvm::ImutKeyValueInfo<clang::ento::EnvironmentEntry, clang::ento::SVal>> *, std::allocator<llvm::ImutAVLTree<llvm::ImutKeyValueInfo<clang::ento::EnvironmentEntry, clang::ento::SVal>> *>>::_Vector_impl_data" = type { ptr, ptr, ptr }
%"class.std::unique_ptr" = type { %"struct.std::__uniq_ptr_data" }
%"struct.std::__uniq_ptr_data" = type { %"class.std::__uniq_ptr_impl" }
%"class.std::__uniq_ptr_impl" = type { %"class.std::tuple" }
%"class.std::tuple" = type { %"struct.std::_Tuple_impl" }
%"struct.std::_Tuple_impl" = type { %"struct.std::_Head_base.20" }
%"struct.std::_Head_base.20" = type { ptr }
%"class.std::unique_ptr.21" = type { %"struct.std::__uniq_ptr_data.22" }
%"struct.std::__uniq_ptr_data.22" = type { %"class.std::__uniq_ptr_impl.23" }
%"class.std::__uniq_ptr_impl.23" = type { %"class.std::tuple.24" }
%"class.std::tuple.24" = type { %"struct.std::_Tuple_impl.25" }
%"struct.std::_Tuple_impl.25" = type { %"struct.std::_Head_base.28" }
%"struct.std::_Head_base.28" = type { ptr }
%"class.llvm::ImmutableMap<void *, void *>::Factory" = type <{ %"class.llvm::ImutAVLFactory.29", i8, [7 x i8] }>
%"class.llvm::ImutAVLFactory.29" = type { %"class.llvm::DenseMap.30", i64, %"class.std::vector.33", %"class.std::vector.33" }
%"class.llvm::DenseMap.30" = type <{ ptr, i32, i32, i32, [4 x i8] }>
%"class.std::vector.33" = type { %"struct.std::_Vector_base.34" }
%"struct.std::_Vector_base.34" = type { %"struct.std::_Vector_base<llvm::ImutAVLTree<llvm::ImutKeyValueInfo<void *, void *>> *, std::allocator<llvm::ImutAVLTree<llvm::ImutKeyValueInfo<void *, void *>> *>>::_Vector_impl" }
%"struct.std::_Vector_base<llvm::ImutAVLTree<llvm::ImutKeyValueInfo<void *, void *>> *, std::allocator<llvm::ImutAVLTree<llvm::ImutKeyValueInfo<void *, void *>> *>>::_Vector_impl" = type { %"struct.std::_Vector_base<llvm::ImutAVLTree<llvm::ImutKeyValueInfo<void *, void *>> *, std::allocator<llvm::ImutAVLTree<llvm::ImutKeyValueInfo<void *, void *>> *>>::_Vector_impl_data" }
%"struct.std::_Vector_base<llvm::ImutAVLTree<llvm::ImutKeyValueInfo<void *, void *>> *, std::allocator<llvm::ImutAVLTree<llvm::ImutKeyValueInfo<void *, void *>> *>>::_Vector_impl_data" = type { ptr, ptr, ptr }
%"class.llvm::DenseMap.38" = type <{ ptr, i32, i32, i32, [4 x i8] }>
%"class.llvm::FoldingSet" = type { %"class.llvm::FoldingSetImpl" }
%"class.llvm::FoldingSetImpl" = type { %"class.llvm::FoldingSetBase" }
%"class.llvm::FoldingSetBase" = type { ptr, i32, i32 }
%"class.std::unique_ptr.41" = type { %"struct.std::__uniq_ptr_data.42" }
%"struct.std::__uniq_ptr_data.42" = type { %"class.std::__uniq_ptr_impl.43" }
%"class.std::__uniq_ptr_impl.43" = type { %"class.std::tuple.44" }
%"class.std::tuple.44" = type { %"struct.std::_Tuple_impl.45" }
%"struct.std::_Tuple_impl.45" = type { %"struct.std::_Head_base.48" }
%"struct.std::_Head_base.48" = type { ptr }
%"class.std::unique_ptr.49" = type { %"struct.std::__uniq_ptr_data.50" }
%"struct.std::__uniq_ptr_data.50" = type { %"class.std::__uniq_ptr_impl.51" }
%"class.std::__uniq_ptr_impl.51" = type { %"class.std::tuple.52" }
%"class.std::tuple.52" = type { %"struct.std::_Tuple_impl.53" }
%"struct.std::_Tuple_impl.53" = type { %"struct.std::_Head_base.56" }
%"struct.std::_Head_base.56" = type { ptr }
%"class.std::vector.57" = type { %"struct.std::_Vector_base.58" }
%"struct.std::_Vector_base.58" = type { %"struct.std::_Vector_base<clang::ento::ProgramState *, std::allocator<clang::ento::ProgramState *>>::_Vector_impl" }
%"struct.std::_Vector_base<clang::ento::ProgramState *, std::allocator<clang::ento::ProgramState *>>::_Vector_impl" = type { %"struct.std::_Vector_base<clang::ento::ProgramState *, std::allocator<clang::ento::ProgramState *>>::_Vector_impl_data" }
%"struct.std::_Vector_base<clang::ento::ProgramState *, std::allocator<clang::ento::ProgramState *>>::_Vector_impl_data" = type { ptr, ptr, ptr }
%"class.std::vector.81" = type { %"struct.std::_Vector_base.82" }
%"struct.std::_Vector_base.82" = type { %"struct.std::_Vector_base<const clang::ento::SymExpr *, std::allocator<const clang::ento::SymExpr *>>::_Vector_impl" }
%"struct.std::_Vector_base<const clang::ento::SymExpr *, std::allocator<const clang::ento::SymExpr *>>::_Vector_impl" = type { %"struct.std::_Vector_base<const clang::ento::SymExpr *, std::allocator<const clang::ento::SymExpr *>>::_Vector_impl_data" }
%"struct.std::_Vector_base<const clang::ento::SymExpr *, std::allocator<const clang::ento::SymExpr *>>::_Vector_impl_data" = type { ptr, ptr, ptr }

; Function Attrs: mustprogress nounwind uwtable
define linkonce_odr hidden noundef nonnull align 8 dereferenceable(8) ptr @_ZNSt10_Head_baseILm0EPN5clang4ento11SValBuilderELb0EE7_M_headERKS4_(ptr noundef nonnull align 8 dereferenceable(8) %0) #0 comdat align 2 {
  %2 = alloca ptr, align 8
  store ptr %0, ptr %2, align 8
  %3 = load ptr, ptr %2, align 8
  %4 = getelementptr inbounds nuw %"struct.std::_Head_base.48", ptr %3, i32 0, i32 0
  ret ptr %4
}

; Function Attrs: mustprogress nounwind uwtable
define linkonce_odr hidden noundef nonnull align 8 dereferenceable(8) ptr @_ZNSt11_Tuple_implILm0EJPN5clang4ento11SValBuilderESt14default_deleteIS2_EEE7_M_headERKS6_(ptr noundef nonnull align 8 dereferenceable(8) %0) #0 comdat align 2 {
  %2 = alloca ptr, align 8
  store ptr %0, ptr %2, align 8
  %3 = load ptr, ptr %2, align 8
  %4 = call noundef nonnull align 8 dereferenceable(8) ptr @_ZNSt10_Head_baseILm0EPN5clang4ento11SValBuilderELb0EE7_M_headERKS4_(ptr noundef nonnull align 8 dereferenceable(8) %3) #10
  ret ptr %4
}

; Function Attrs: mustprogress nounwind uwtable
define linkonce_odr noundef nonnull align 8 dereferenceable(8) ptr @_ZSt12__get_helperILm0EPN5clang4ento11SValBuilderEJSt14default_deleteIS2_EEERKT0_RKSt11_Tuple_implIXT_EJS6_DpT1_EE(ptr noundef nonnull align 8 dereferenceable(8) %0) #0 comdat {
  %2 = alloca ptr, align 8
  store ptr %0, ptr %2, align 8
  %3 = load ptr, ptr %2, align 8
  %4 = call noundef nonnull align 8 dereferenceable(8) ptr @_ZNSt11_Tuple_implILm0EJPN5clang4ento11SValBuilderESt14default_deleteIS2_EEE7_M_headERKS6_(ptr noundef nonnull align 8 dereferenceable(8) %3) #10
  ret ptr %4
}

; Function Attrs: mustprogress nounwind uwtable
define linkonce_odr noundef nonnull align 8 dereferenceable(8) ptr @_ZSt3getILm0EJPN5clang4ento11SValBuilderESt14default_deleteIS2_EEERKNSt13tuple_elementIXT_ESt5tupleIJDpT0_EEE4typeERKSA_(ptr noundef nonnull align 8 dereferenceable(8) %0) #0 comdat {
  %2 = alloca ptr, align 8
  store ptr %0, ptr %2, align 8
  %3 = load ptr, ptr %2, align 8
  %4 = call noundef nonnull align 8 dereferenceable(8) ptr @_ZSt12__get_helperILm0EPN5clang4ento11SValBuilderEJSt14default_deleteIS2_EEERKT0_RKSt11_Tuple_implIXT_EJS6_DpT1_EE(ptr noundef nonnull align 8 dereferenceable(8) %3) #10
  ret ptr %4
}

; Function Attrs: mustprogress nounwind uwtable
define linkonce_odr hidden noundef ptr @_ZNKSt15__uniq_ptr_implIN5clang4ento11SValBuilderESt14default_deleteIS2_EE6_M_ptrEv(ptr noundef nonnull align 8 dereferenceable(8) %0) #0 comdat align 2 {
  %2 = alloca ptr, align 8
  store ptr %0, ptr %2, align 8
  %3 = load ptr, ptr %2, align 8
  %4 = getelementptr inbounds nuw %"class.std::__uniq_ptr_impl.43", ptr %3, i32 0, i32 0
  %5 = call noundef nonnull align 8 dereferenceable(8) ptr @_ZSt3getILm0EJPN5clang4ento11SValBuilderESt14default_deleteIS2_EEERKNSt13tuple_elementIXT_ESt5tupleIJDpT0_EEE4typeERKSA_(ptr noundef nonnull align 8 dereferenceable(8) %4) #10
  %6 = load ptr, ptr %5, align 8
  ret ptr %6
}

; Function Attrs: mustprogress nounwind uwtable
define linkonce_odr hidden noundef ptr @_ZNKSt10unique_ptrIN5clang4ento11SValBuilderESt14default_deleteIS2_EE3getEv(ptr noundef nonnull align 8 dereferenceable(8) %0) #0 comdat align 2 {
  %2 = alloca ptr, align 8
  store ptr %0, ptr %2, align 8
  %3 = load ptr, ptr %2, align 8
  %4 = getelementptr inbounds nuw %"class.std::unique_ptr.41", ptr %3, i32 0, i32 0
  %5 = call noundef ptr @_ZNKSt15__uniq_ptr_implIN5clang4ento11SValBuilderESt14default_deleteIS2_EE6_M_ptrEv(ptr noundef nonnull align 8 dereferenceable(8) %4) #10
  ret ptr %5
}

; Function Attrs: mustprogress nounwind uwtable
define linkonce_odr hidden void @_ZN4llvm22IntrusiveRefCntPtrInfoIKN5clang4ento12ProgramStateEE7releaseEPS4_(ptr noundef %0) #0 comdat align 2 {
  %2 = alloca ptr, align 8
  store ptr %0, ptr %2, align 8
  %3 = load ptr, ptr %2, align 8
  call void @_ZN5clang4ento19ProgramStateReleaseEPKNS0_12ProgramStateE(ptr noundef %3)
  ret void
}

; Function Attrs: mustprogress nounwind uwtable
define linkonce_odr hidden noundef nonnull align 8 dereferenceable(412) ptr @_ZNKSt10unique_ptrIN5clang4ento11SValBuilderESt14default_deleteIS2_EEdeEv(ptr noundef nonnull align 8 dereferenceable(8) %0) #0 comdat align 2 {
  %2 = alloca ptr, align 8
  store ptr %0, ptr %2, align 8
  %3 = load ptr, ptr %2, align 8
  br label %4

4:                                                ; preds = %1
  br label %5

5:                                                ; preds = %4
  %6 = call noundef ptr @_ZNKSt10unique_ptrIN5clang4ento11SValBuilderESt14default_deleteIS2_EE3getEv(ptr noundef nonnull align 8 dereferenceable(8) %3) #10
  ret ptr %6
}

; Function Attrs: mustprogress nounwind uwtable
define linkonce_odr hidden noundef nonnull align 8 dereferenceable(288) ptr @_ZNK5clang4ento12ProgramState15getStateManagerEv(ptr noundef nonnull align 8 dereferenceable(48) %0) #0 comdat align 2 {
  %2 = alloca ptr, align 8
  store ptr %0, ptr %2, align 8
  %3 = load ptr, ptr %2, align 8
  %4 = getelementptr inbounds nuw %"class.clang::ento::ProgramState", ptr %3, i32 0, i32 1
  %5 = load ptr, ptr %4, align 8
  ret ptr %5
}

; Function Attrs: mustprogress nounwind uwtable
define linkonce_odr hidden void @_ZN4llvm22IntrusiveRefCntPtrInfoIKN5clang4ento12ProgramStateEE6retainEPS4_(ptr noundef %0) #0 comdat align 2 {
  %2 = alloca ptr, align 8
  store ptr %0, ptr %2, align 8
  %3 = load ptr, ptr %2, align 8
  call void @_ZN5clang4ento18ProgramStateRetainEPKNS0_12ProgramStateE(ptr noundef %3)
  ret void
}

; Function Attrs: mustprogress nounwind uwtable
define linkonce_odr hidden void @_ZN4llvm18IntrusiveRefCntPtrIKN5clang4ento12ProgramStateEE7releaseEv(ptr noundef nonnull align 8 dereferenceable(8) %0) #0 comdat align 2 {
  %2 = alloca ptr, align 8
  store ptr %0, ptr %2, align 8
  %3 = load ptr, ptr %2, align 8
  %4 = getelementptr inbounds nuw %"class.llvm::IntrusiveRefCntPtr", ptr %3, i32 0, i32 0
  %5 = load ptr, ptr %4, align 8
  %6 = icmp ne ptr %5, null
  br i1 %6, label %7, label %10

7:                                                ; preds = %1
  %8 = getelementptr inbounds nuw %"class.llvm::IntrusiveRefCntPtr", ptr %3, i32 0, i32 0
  %9 = load ptr, ptr %8, align 8
  call void @_ZN4llvm22IntrusiveRefCntPtrInfoIKN5clang4ento12ProgramStateEE7releaseEPS4_(ptr noundef %9)
  br label %10

10:                                               ; preds = %7, %1
  ret void
}

; Function Attrs: mustprogress nounwind uwtable
define linkonce_odr hidden { ptr, i8 } @_ZNK5clang4ento12ProgramState7getSValEPKNS_4StmtEPKNS_15LocationContextE(ptr noundef nonnull align 8 dereferenceable(48) %0, ptr noundef %1, ptr noundef %2) #0 comdat align 2 {
  %4 = alloca %"class.clang::ento::SVal", align 8
  %5 = alloca ptr, align 8
  %6 = alloca ptr, align 8
  %7 = alloca ptr, align 8
  %8 = alloca %"class.clang::ento::EnvironmentEntry", align 8
  %9 = alloca { ptr, i8 }, align 8
  store ptr %0, ptr %5, align 8
  store ptr %1, ptr %6, align 8
  store ptr %2, ptr %7, align 8
  %10 = load ptr, ptr %5, align 8
  %11 = getelementptr inbounds nuw %"class.clang::ento::ProgramState", ptr %10, i32 0, i32 2
  %12 = load ptr, ptr %6, align 8
  %13 = load ptr, ptr %7, align 8
  call void @_ZN5clang4ento16EnvironmentEntryC1EPKNS_4StmtEPKNS_15LocationContextE(ptr noundef nonnull align 8 dereferenceable(16) %8, ptr noundef %12, ptr noundef %13)
  %14 = call noundef nonnull align 8 dereferenceable(288) ptr @_ZNK5clang4ento12ProgramState15getStateManagerEv(ptr noundef nonnull align 8 dereferenceable(48) %10)
  %15 = getelementptr inbounds nuw %"class.clang::ento::ProgramStateManager", ptr %14, i32 0, i32 7
  %16 = call noundef nonnull align 8 dereferenceable(412) ptr @_ZNKSt10unique_ptrIN5clang4ento11SValBuilderESt14default_deleteIS2_EEdeEv(ptr noundef nonnull align 8 dereferenceable(8) %15) #10
  %17 = call { ptr, i8 } @_ZNK5clang4ento11Environment7getSValERKNS0_16EnvironmentEntryERNS0_11SValBuilderE(ptr noundef nonnull align 8 dereferenceable(8) %11, ptr noundef nonnull align 8 dereferenceable(16) %8, ptr noundef nonnull align 8 dereferenceable(412) %16)
  store { ptr, i8 } %17, ptr %9, align 8
  call void @llvm.memcpy.p0.p0.i64(ptr align 8 %4, ptr align 8 %9, i64 9, i1 false)
  %18 = load { ptr, i8 }, ptr %4, align 8
  ret { ptr, i8 } %18
}

; Function Attrs: mustprogress nounwind uwtable
define linkonce_odr hidden noundef ptr @_ZNK4llvm18IntrusiveRefCntPtrIKN5clang4ento12ProgramStateEEptEv(ptr noundef nonnull align 8 dereferenceable(8) %0) #0 comdat align 2 {
  %2 = alloca ptr, align 8
  store ptr %0, ptr %2, align 8
  %3 = load ptr, ptr %2, align 8
  %4 = getelementptr inbounds nuw %"class.llvm::IntrusiveRefCntPtr", ptr %3, i32 0, i32 0
  %5 = load ptr, ptr %4, align 8
  ret ptr %5
}

; Function Attrs: mustprogress nounwind uwtable
define linkonce_odr hidden void @_ZN4llvm18IntrusiveRefCntPtrIKN5clang4ento12ProgramStateEE6retainEv(ptr noundef nonnull align 8 dereferenceable(8) %0) #0 comdat align 2 {
  %2 = alloca ptr, align 8
  store ptr %0, ptr %2, align 8
  %3 = load ptr, ptr %2, align 8
  %4 = getelementptr inbounds nuw %"class.llvm::IntrusiveRefCntPtr", ptr %3, i32 0, i32 0
  %5 = load ptr, ptr %4, align 8
  %6 = icmp ne ptr %5, null
  br i1 %6, label %7, label %10

7:                                                ; preds = %1
  %8 = getelementptr inbounds nuw %"class.llvm::IntrusiveRefCntPtr", ptr %3, i32 0, i32 0
  %9 = load ptr, ptr %8, align 8
  call void @_ZN4llvm22IntrusiveRefCntPtrInfoIKN5clang4ento12ProgramStateEE6retainEPS4_(ptr noundef %9)
  br label %10

10:                                               ; preds = %7, %1
  ret void
}

; Function Attrs: mustprogress nounwind uwtable
define linkonce_odr hidden void @_ZN4llvm18IntrusiveRefCntPtrIKN5clang4ento12ProgramStateEED2Ev(ptr noundef nonnull align 8 dereferenceable(8) %0) unnamed_addr #0 comdat align 2 {
  %2 = alloca ptr, align 8
  store ptr %0, ptr %2, align 8
  %3 = load ptr, ptr %2, align 8
  call void @_ZN4llvm18IntrusiveRefCntPtrIKN5clang4ento12ProgramStateEE7releaseEv(ptr noundef nonnull align 8 dereferenceable(8) %3)
  ret void
}

; Function Attrs: mustprogress nounwind uwtable
define dso_local void @_ZN5clang4ento5taint21getTaintedSymbolsImplEN4llvm18IntrusiveRefCntPtrIKNS0_12ProgramStateEEEPKNS_4StmtEPKNS_15LocationContextEjb(ptr dead_on_unwind noalias writable sret(%"class.std::vector.81") align 8 %0, ptr noundef %1, ptr noundef %2, ptr noundef %3, i32 noundef %4, i1 noundef zeroext %5) #0 {
  %7 = alloca ptr, align 8
  %8 = alloca ptr, align 8
  %9 = alloca ptr, align 8
  %10 = alloca ptr, align 8
  %11 = alloca i32, align 4
  %12 = alloca i8, align 1
  %13 = alloca %"class.clang::ento::SVal", align 8
  %14 = alloca { ptr, i8 }, align 8
  %15 = alloca %"class.llvm::IntrusiveRefCntPtr", align 8
  %16 = alloca %"class.clang::ento::SVal", align 8
  store ptr %0, ptr %7, align 8
  store ptr %1, ptr %8, align 8
  store ptr %2, ptr %9, align 8
  store ptr %3, ptr %10, align 8
  store i32 %4, ptr %11, align 4
  %17 = zext i1 %5 to i8
  store i8 %17, ptr %12, align 1
  %18 = call noundef ptr @_ZNK4llvm18IntrusiveRefCntPtrIKN5clang4ento12ProgramStateEEptEv(ptr noundef nonnull align 8 dereferenceable(8) %1)
  %19 = load ptr, ptr %9, align 8
  %20 = load ptr, ptr %10, align 8
  %21 = call { ptr, i8 } @_ZNK5clang4ento12ProgramState7getSValEPKNS_4StmtEPKNS_15LocationContextE(ptr noundef nonnull align 8 dereferenceable(48) %18, ptr noundef %19, ptr noundef %20)
  store { ptr, i8 } %21, ptr %14, align 8
  call void @llvm.memcpy.p0.p0.i64(ptr align 8 %13, ptr align 8 %14, i64 9, i1 false)
  call void @_ZN4llvm18IntrusiveRefCntPtrIKN5clang4ento12ProgramStateEEC2ERKS5_(ptr noundef nonnull align 8 dereferenceable(8) %15, ptr noundef nonnull align 8 dereferenceable(8) %1)
  call void @llvm.memcpy.p0.p0.i64(ptr align 8 %16, ptr align 8 %13, i64 16, i1 false)
  %22 = load i32, ptr %11, align 4
  %23 = load i8, ptr %12, align 1
  %24 = trunc i8 %23 to i1
  %25 = getelementptr inbounds nuw { ptr, i8 }, ptr %16, i32 0, i32 0
  %26 = load ptr, ptr %25, align 8
  %27 = getelementptr inbounds nuw { ptr, i8 }, ptr %16, i32 0, i32 1
  %28 = load i8, ptr %27, align 8
  call void @_ZN5clang4ento5taint21getTaintedSymbolsImplEN4llvm18IntrusiveRefCntPtrIKNS0_12ProgramStateEEENS0_4SValEjb(ptr dead_on_unwind writable sret(%"class.std::vector.81") align 8 %0, ptr noundef %15, ptr %26, i8 %28, i32 noundef %22, i1 noundef zeroext %24)
  call void @_ZN4llvm18IntrusiveRefCntPtrIKN5clang4ento12ProgramStateEED2Ev(ptr noundef nonnull align 8 dereferenceable(8) %15) #10
  ret void
}

; Function Attrs: mustprogress nounwind uwtable
define linkonce_odr hidden void @_ZN4llvm18IntrusiveRefCntPtrIKN5clang4ento12ProgramStateEEC2ERKS5_(ptr noundef nonnull align 8 dereferenceable(8) %0, ptr noundef nonnull align 8 dereferenceable(8) %1) unnamed_addr #0 comdat align 2 {
  %3 = alloca ptr, align 8
  %4 = alloca ptr, align 8
  store ptr %0, ptr %3, align 8
  store ptr %1, ptr %4, align 8
  %5 = load ptr, ptr %3, align 8
  %6 = getelementptr inbounds nuw %"class.llvm::IntrusiveRefCntPtr", ptr %5, i32 0, i32 0
  %7 = load ptr, ptr %4, align 8
  %8 = getelementptr inbounds nuw %"class.llvm::IntrusiveRefCntPtr", ptr %7, i32 0, i32 0
  %9 = load ptr, ptr %8, align 8
  store ptr %9, ptr %6, align 8
  call void @_ZN4llvm18IntrusiveRefCntPtrIKN5clang4ento12ProgramStateEE6retainEv(ptr noundef nonnull align 8 dereferenceable(8) %5)
  ret void
}

; Function Attrs: mustprogress nounwind uwtable
define dso_local void @_ZN5clang4ento5taint17getTaintedSymbolsEN4llvm18IntrusiveRefCntPtrIKNS0_12ProgramStateEEEPKNS_4StmtEPKNS_15LocationContextEj(ptr dead_on_unwind noalias writable sret(%"class.std::vector.81") align 8 %0, ptr noundef %1, ptr noundef %2, ptr noundef %3, i32 noundef %4) #0 {
  %6 = alloca ptr, align 8
  %7 = alloca ptr, align 8
  %8 = alloca ptr, align 8
  %9 = alloca ptr, align 8
  %10 = alloca i32, align 4
  %11 = alloca %"class.llvm::IntrusiveRefCntPtr", align 8
  store ptr %0, ptr %6, align 8
  store ptr %1, ptr %7, align 8
  store ptr %2, ptr %8, align 8
  store ptr %3, ptr %9, align 8
  store i32 %4, ptr %10, align 4
  call void @_ZN4llvm18IntrusiveRefCntPtrIKN5clang4ento12ProgramStateEEC2ERKS5_(ptr noundef nonnull align 8 dereferenceable(8) %11, ptr noundef nonnull align 8 dereferenceable(8) %1)
  %12 = load ptr, ptr %8, align 8
  %13 = load ptr, ptr %9, align 8
  %14 = load i32, ptr %10, align 4
  call void @_ZN5clang4ento5taint21getTaintedSymbolsImplEN4llvm18IntrusiveRefCntPtrIKNS0_12ProgramStateEEEPKNS_4StmtEPKNS_15LocationContextEjb(ptr dead_on_unwind writable sret(%"class.std::vector.81") align 8 %0, ptr noundef %11, ptr noundef %12, ptr noundef %13, i32 noundef %14, i1 noundef zeroext false)
  call void @_ZN4llvm18IntrusiveRefCntPtrIKN5clang4ento12ProgramStateEED2Ev(ptr noundef nonnull align 8 dereferenceable(8) %11) #10
  ret void
}