; Function Attrs: mustprogress nounwind uwtable
define dso_local void @_ZN5clang4ento5taint17getTaintedSymbolsEN4llvm18IntrusiveRefCntPtrIKNS0_12ProgramStateEEEPKNS_4StmtEPKNS_15LocationContextEj(ptr dead_on_unwind noalias writable sret(%"class.std::vector.81") align 8 %0, ptr nocapture noundef readonly %1, ptr noundef %2, ptr noundef %3, i32 noundef %4) local_unnamed_addr #0 {
  %6 = alloca %"class.clang::ento::EnvironmentEntry", align 8
  %7 = alloca %"class.llvm::IntrusiveRefCntPtr", align 8
  %8 = load ptr, ptr %1, align 8
  %.not.i.i = icmp eq ptr %8, null
  br i1 %.not.i.i, label %_ZN4llvm18IntrusiveRefCntPtrIKN5clang4ento12ProgramStateEEC2ERKS5_.exit.i, label %9

9:                                                ; preds = %5
  tail call void @_ZN5clang4ento18ProgramStateRetainEPKNS0_12ProgramStateE(ptr noundef nonnull %8) #14
  br label %_ZN4llvm18IntrusiveRefCntPtrIKN5clang4ento12ProgramStateEEC2ERKS5_.exit.i

_ZN4llvm18IntrusiveRefCntPtrIKN5clang4ento12ProgramStateEEC2ERKS5_.exit.i: ; preds = %5, %9
  call void @llvm.lifetime.start.p0(i64 8, ptr nonnull %7)
  call void @llvm.lifetime.start.p0(i64 16, ptr nonnull %6), !noalias !112
  %10 = getelementptr inbounds nuw i8, ptr %8, i64 16
  call void @_ZN5clang4ento16EnvironmentEntryC1EPKNS_4StmtEPKNS_15LocationContextE(ptr noundef nonnull align 8 dereferenceable(16) %6, ptr noundef %2, ptr noundef %3) #14, !noalias !112
  %11 = getelementptr inbounds nuw i8, ptr %8, i64 8
  %12 = load ptr, ptr %11, align 8, !noalias !112
  %13 = getelementptr inbounds nuw i8, ptr %12, i64 240
  %14 = load ptr, ptr %13, align 8, !noalias !112
  %15 = call { ptr, i8 } @_ZNK5clang4ento11Environment7getSValERKNS0_16EnvironmentEntryERNS0_11SValBuilderE(ptr noundef nonnull align 8 dereferenceable(8) %10, ptr noundef nonnull align 8 dereferenceable(16) %6, ptr noundef nonnull align 8 dereferenceable(412) %14) #14, !noalias !112
  call void @llvm.lifetime.end.p0(i64 16, ptr nonnull %6), !noalias !112
  %.fca.0.extract.i = extractvalue { ptr, i8 } %15, 0
  %.fca.1.extract.i = extractvalue { ptr, i8 } %15, 1
  store ptr %8, ptr %7, align 8, !noalias !112
  call void @_ZN5clang4ento18ProgramStateRetainEPKNS0_12ProgramStateE(ptr noundef nonnull %8) #14, !noalias !112
  call void @_ZN5clang4ento5taint21getTaintedSymbolsImplEN4llvm18IntrusiveRefCntPtrIKNS0_12ProgramStateEEENS0_4SValEjb(ptr dead_on_unwind writable sret(%"class.std::vector.81") align 8 %0, ptr noundef nonnull %7, ptr %.fca.0.extract.i, i8 %.fca.1.extract.i, i32 noundef %4, i1 noundef zeroext false)
  %16 = load ptr, ptr %7, align 8, !noalias !112
  %.not.i.i7.i = icmp eq ptr %16, null
  br i1 %.not.i.i7.i, label %_ZN4llvm18IntrusiveRefCntPtrIKN5clang4ento12ProgramStateEED2Ev.exit, label %17

17:                                               ; preds = %_ZN4llvm18IntrusiveRefCntPtrIKN5clang4ento12ProgramStateEEC2ERKS5_.exit.i
  call void @_ZN5clang4ento19ProgramStateReleaseEPKNS0_12ProgramStateE(ptr noundef nonnull %16) #14
  br label %_ZN4llvm18IntrusiveRefCntPtrIKN5clang4ento12ProgramStateEED2Ev.exit

_ZN4llvm18IntrusiveRefCntPtrIKN5clang4ento12ProgramStateEED2Ev.exit: ; preds = %_ZN4llvm18IntrusiveRefCntPtrIKN5clang4ento12ProgramStateEEC2ERKS5_.exit.i, %17
  call void @llvm.lifetime.end.p0(i64 8, ptr nonnull %7)
  call void @_ZN5clang4ento19ProgramStateReleaseEPKNS0_12ProgramStateE(ptr noundef nonnull %8) #14
  ret void
}